; Function Attrs: nounwind uwtable
define internal zeroext i1 @HIDAPI_DriverGIP_RumbleJoystick(ptr noundef readonly captures(none) %0, ptr noundef readonly captures(none) %1, i16 noundef zeroext %2, i16 noundef zeroext %3) #0 {
  %5 = getelementptr i8, ptr %0, i64 112
  %.val = load ptr, ptr %5, align 8
  %6 = getelementptr inbounds nuw i8, ptr %.val, i64 24
  br label %7

7:                                                ; preds = %15, %4
  %indvars.iv.i = phi i64 [ 0, %4 ], [ %indvars.iv.next.i, %15 ]
  %8 = getelementptr inbounds nuw [8 x ptr], ptr %6, i64 0, i64 %indvars.iv.i
  %9 = load ptr, ptr %8, align 8
  %.not.i = icmp eq ptr %9, null
  br i1 %.not.i, label %15, label %10

10:                                               ; preds = %7
  %11 = getelementptr inbounds nuw i8, ptr %9, i64 12
  %12 = load i32, ptr %11, align 4
  %13 = load i32, ptr %1, align 8
  %14 = icmp eq i32 %12, %13
  br i1 %14, label %HIDAPI_DriverGIP_FindAttachment.exit, label %15

15:                                               ; preds = %10, %7
  %indvars.iv.next.i = add nuw nsw i64 %indvars.iv.i, 1
  %exitcond.not.i = icmp eq i64 %indvars.iv.next.i, 8
  br i1 %exitcond.not.i, label %16, label %7, !llvm.loop !12

16:                                               ; preds = %15
  %17 = tail call zeroext i1 (ptr, ...) @SDL_SetError_REAL(ptr noundef nonnull @.str.52) #10
  br label %32

HIDAPI_DriverGIP_FindAttachment.exit:             ; preds = %10
  %18 = getelementptr inbounds nuw i8, ptr %9, i64 332
  %19 = load i32, ptr %18, align 4
  %20 = and i32 %19, 32
  %.not11 = icmp eq i32 %20, 0
  br i1 %.not11, label %21, label %23

21:                                               ; preds = %HIDAPI_DriverGIP_FindAttachment.exit
  %22 = tail call zeroext i1 (ptr, ...) @SDL_SetError_REAL(ptr noundef nonnull @.str.53) #10
  br label %32

23:                                               ; preds = %HIDAPI_DriverGIP_FindAttachment.exit
  %24 = udiv i16 %2, 655
  %25 = trunc nuw nsw i16 %24 to i8
  %26 = getelementptr inbounds nuw i8, ptr %9, i64 243
  store i8 %25, ptr %26, align 1
  %27 = udiv i16 %3, 655
  %28 = trunc nuw nsw i16 %27 to i8
  %29 = getelementptr inbounds nuw i8, ptr %9, i64 244
  store i8 %28, ptr %29, align 4
  %30 = getelementptr inbounds nuw i8, ptr %9, i64 240
  store i8 1, ptr %30, align 8
  %31 = tail call fastcc zeroext i1 @HIDAPI_DriverGIP_UpdateRumble(ptr noundef %9)
  br label %32

32:                                               ; preds = %23, %21, %16
  %.0 = phi i1 [ %31, %23 ], [ %22, %21 ], [ %17, %16 ]
  ret i1 %.0
}